target datalayout = "e-m:e-p270:32:32-p271:32:32-p272:64:64-i64:64-i128:128-f80:128-n8:16:32:64-S128"
target triple = "x86_64-pc-linux-gnu"

%"struct.icu_77::FormattedStringBuilder::Field" = type { i8 }
%"struct.icu_77::number::impl::Modifier::Parameters" = type { ptr, i32, i32 }

@_ZN6icu_776number4impl8Modifier10ParametersC1Ev = unnamed_addr alias void (ptr), ptr @_ZN6icu_776number4impl8Modifier10ParametersC2Ev

; Function Attrs: mustprogress uwtable
define void @_ZN6icu_776number4impl14SimpleModifierC2ERKNS_15SimpleFormatterENS_22FormattedStringBuilder5FieldEb(ptr noundef nonnull align 8 dereferenceable(104) %0, ptr noundef nonnull align 8 dereferenceable(72) %1, i8 %2, i1 noundef zeroext %3) unnamed_addr #2 align 2 {
  %5 = alloca %"struct.icu_77::FormattedStringBuilder::Field", align 1
  %6 = alloca ptr, align 8
  %7 = alloca ptr, align 8
  %8 = alloca i8, align 1
  %9 = alloca %"struct.icu_77::FormattedStringBuilder::Field", align 1
  %10 = alloca %"struct.icu_77::number::impl::Modifier::Parameters", align 8
  %11 = getelementptr inbounds nuw %"struct.icu_77::FormattedStringBuilder::Field", ptr %5, i32 0, i32 0
  store i8 %2, ptr %11, align 1
  store ptr %0, ptr %6, align 8, !tbaa !57
  store ptr %1, ptr %7, align 8, !tbaa !59
  %12 = zext i1 %3 to i8
  store i8 %12, ptr %8, align 1, !tbaa !61
  %13 = load ptr, ptr %6, align 8
  %14 = load ptr, ptr %7, align 8, !tbaa !59
  call void @llvm.memcpy.p0.p0.i64(ptr align 1 %9, ptr align 1 %5, i64 1, i1 false), !tbaa.struct !40
  %15 = load i8, ptr %8, align 1, !tbaa !61, !range !52, !noundef !53
  %16 = trunc i8 %15 to i1
  call void @_ZN6icu_776number4impl8Modifier10ParametersC1Ev(ptr noundef nonnull align 8 dereferenceable(16) %10)
  %17 = getelementptr inbounds nuw %"struct.icu_77::FormattedStringBuilder::Field", ptr %9, i32 0, i32 0
  %18 = load i8, ptr %17, align 1
  %19 = getelementptr inbounds nuw { ptr, i64 }, ptr %10, i32 0, i32 0
  %20 = load ptr, ptr %19, align 8
  %21 = getelementptr inbounds nuw { ptr, i64 }, ptr %10, i32 0, i32 1
  %22 = load i64, ptr %21, align 8
  call void @_ZN6icu_776number4impl14SimpleModifierC2ERKNS_15SimpleFormatterENS_22FormattedStringBuilder5FieldEbNS1_8Modifier10ParametersE(ptr noundef nonnull align 8 dereferenceable(104) %13, ptr noundef nonnull align 8 dereferenceable(72) %14, i8 %18, i1 noundef zeroext %16, ptr %20, i64 %22)
  ret void
}