; Function Attrs: mustprogress uwtable
define void @_ZN6icu_776number4impl14SimpleModifierC2ERKNS_15SimpleFormatterENS_22FormattedStringBuilder5FieldEb(ptr noundef nonnull align 8 dereferenceable(104) initializes((0, 8)) %0, ptr noundef nonnull align 8 dereferenceable(72) %1, i8 %2, i1 noundef zeroext %3) unnamed_addr #4 align 2 {
  %5 = alloca %"struct.icu_77::number::impl::Modifier::Parameters", align 8
  call void @_ZN6icu_776number4impl8Modifier10ParametersC1Ev(ptr noundef nonnull align 8 dereferenceable(16) %5)
  %6 = load ptr, ptr %5, align 8
  %7 = getelementptr inbounds nuw i8, ptr %5, i64 8
  %8 = load i64, ptr %7, align 8
  call void @_ZN6icu_776number4impl14SimpleModifierC2ERKNS_15SimpleFormatterENS_22FormattedStringBuilder5FieldEbNS1_8Modifier10ParametersE(ptr noundef nonnull align 8 dereferenceable(104) %0, ptr noundef nonnull align 8 dereferenceable(72) %1, i8 %2, i1 noundef zeroext %3, ptr %6, i64 %8)
  ret void
}